target datalayout = "e-m:e-p270:32:32-p271:32:32-p272:64:64-i64:64-i128:128-f80:128-n8:16:32:64-S128"
target triple = "x86_64-pc-linux-gnu"

%struct.Abc_Frame_t_ = type { ptr, ptr, ptr, ptr, ptr, ptr, ptr, ptr, ptr, ptr, i32, i32, i32, i32, i32, ptr, float, float, i32, i32, ptr, ptr, ptr, double, double, ptr, ptr, ptr, ptr, ptr, ptr, ptr, ptr, ptr, ptr, ptr, ptr, float, ptr, i32, ptr, ptr, ptr, ptr, ptr, i32, i32, i32, i32, i32, i32, ptr, ptr, ptr, ptr, ptr, ptr, i32, i32, ptr, ptr, ptr, ptr, ptr, ptr, ptr, ptr, ptr, ptr, ptr, ptr, ptr, ptr, ptr, ptr, ptr, ptr, ptr, ptr, ptr, ptr, ptr, ptr, ptr, ptr, ptr, ptr, ptr, ptr }

@.str.51 = private unnamed_addr constant [2 x i8] c"r\00", align 1
@globalUtilOptind = external global i32, align 4
@.str.118 = private unnamed_addr constant [38 x i8] c"\09-h     : prints the command summary\0A\00", align 1
@.str.119 = private unnamed_addr constant [38 x i8] c"\09file   : the name of a file to read\0A\00", align 1
@.str.141 = private unnamed_addr constant [31 x i8] c"Cannot open input file \22%s\22. \0A\00", align 1
@.str.165 = private unnamed_addr constant [2 x i8] c"h\00", align 1
@.str.215 = private unnamed_addr constant [33 x i8] c"usage: read_status [-ch] <file>\0A\00", align 1
@.str.216 = private unnamed_addr constant [39 x i8] c"\09         reads verification log file\0A\00", align 1

; Function Attrs: nounwind uwtable
define internal i32 @IoCommandReadStatus(ptr noundef %0, i32 noundef %1, ptr noundef %2) #0 {
  %4 = alloca i32, align 4
  %5 = alloca ptr, align 8
  %6 = alloca i32, align 4
  %7 = alloca ptr, align 8
  %8 = alloca ptr, align 8
  %9 = alloca ptr, align 8
  %10 = alloca i32, align 4
  %11 = alloca i32, align 4
  store ptr %0, ptr %5, align 8, !tbaa !3
  store i32 %1, ptr %6, align 4, !tbaa !8
  store ptr %2, ptr %7, align 8, !tbaa !10
  call void @llvm.lifetime.start.p0(i64 8, ptr %8) #11
  call void @llvm.lifetime.start.p0(i64 8, ptr %9) #11
  call void @llvm.lifetime.start.p0(i64 4, ptr %10) #11
  call void (...) @Extra_UtilGetoptReset()
  br label %12

12:                                               ; preds = %3
  %13 = load i32, ptr %6, align 4, !tbaa !8
  %14 = load ptr, ptr %7, align 8, !tbaa !10
  %15 = call i32 @Extra_UtilGetopt(i32 noundef %13, ptr noundef %14, ptr noundef @.str.165)
  store i32 %15, ptr %10, align 4, !tbaa !8
  %16 = icmp ne i32 %15, -1
  br i1 %16, label %17, label %21

17:                                               ; preds = %12
  %18 = load i32, ptr %10, align 4, !tbaa !8
  switch i32 %18, label %20 [
    i32 104, label %19
  ]

19:                                               ; preds = %17
  br label %54

20:                                               ; preds = %17
  br label %54

21:                                               ; preds = %12
  %22 = load i32, ptr %6, align 4, !tbaa !8
  %23 = load i32, ptr @globalUtilOptind, align 4, !tbaa !8
  %24 = add nsw i32 %23, 1
  %25 = icmp ne i32 %22, %24
  br i1 %25, label %26, label %27

26:                                               ; preds = %21
  br label %54

27:                                               ; preds = %21
  %28 = load ptr, ptr %7, align 8, !tbaa !10
  %29 = load i32, ptr @globalUtilOptind, align 4, !tbaa !8
  %30 = sext i32 %29 to i64
  %31 = getelementptr inbounds ptr, ptr %28, i64 %30
  %32 = load ptr, ptr %31, align 8, !tbaa !14
  store ptr %32, ptr %8, align 8, !tbaa !14
  %33 = load ptr, ptr %8, align 8, !tbaa !14
  %34 = call noalias ptr @fopen(ptr noundef %33, ptr noundef @.str.51)
  store ptr %34, ptr %9, align 8, !tbaa !22
  %35 = icmp eq ptr %34, null
  br i1 %35, label %36, label %42

36:                                               ; preds = %27
  %37 = load ptr, ptr %5, align 8, !tbaa !3
  %38 = getelementptr inbounds nuw %struct.Abc_Frame_t_, ptr %37, i32 0, i32 21
  %39 = load ptr, ptr %38, align 8, !tbaa !24
  %40 = load ptr, ptr %8, align 8, !tbaa !14
  %41 = call i32 (ptr, ptr, ...) @fprintf(ptr noundef %39, ptr noundef @.str.141, ptr noundef %40) #11
  store i32 1, ptr %4, align 4
  store i32 1, ptr %11, align 4
  br label %71

42:                                               ; preds = %27
  %43 = load ptr, ptr %9, align 8, !tbaa !22
  %44 = call i32 @fclose(ptr noundef %43)
  %45 = load ptr, ptr %5, align 8, !tbaa !3
  call void @Abc_FrameClearVerifStatus(ptr noundef %45)
  %46 = load ptr, ptr %8, align 8, !tbaa !14
  %47 = load ptr, ptr %5, align 8, !tbaa !3
  %48 = getelementptr inbounds nuw %struct.Abc_Frame_t_, ptr %47, i32 0, i32 51
  %49 = load ptr, ptr %5, align 8, !tbaa !3
  %50 = getelementptr inbounds nuw %struct.Abc_Frame_t_, ptr %49, i32 0, i32 58
  %51 = call i32 @Abc_NtkReadLogFile(ptr noundef %46, ptr noundef %48, ptr noundef %50)
  %52 = load ptr, ptr %5, align 8, !tbaa !3
  %53 = getelementptr inbounds nuw %struct.Abc_Frame_t_, ptr %52, i32 0, i32 57
  store i32 %51, ptr %53, align 8, !tbaa !46
  store i32 0, ptr %4, align 4
  store i32 1, ptr %11, align 4
  br label %71

54:                                               ; preds = %26, %20, %19
  %55 = load ptr, ptr %5, align 8, !tbaa !3
  %56 = getelementptr inbounds nuw %struct.Abc_Frame_t_, ptr %55, i32 0, i32 21
  %57 = load ptr, ptr %56, align 8, !tbaa !24
  %58 = call i32 (ptr, ptr, ...) @fprintf(ptr noundef %57, ptr noundef @.str.215) #11
  %59 = load ptr, ptr %5, align 8, !tbaa !3
  %60 = getelementptr inbounds nuw %struct.Abc_Frame_t_, ptr %59, i32 0, i32 21
  %61 = load ptr, ptr %60, align 8, !tbaa !24
  %62 = call i32 (ptr, ptr, ...) @fprintf(ptr noundef %61, ptr noundef @.str.216) #11
  %63 = load ptr, ptr %5, align 8, !tbaa !3
  %64 = getelementptr inbounds nuw %struct.Abc_Frame_t_, ptr %63, i32 0, i32 21
  %65 = load ptr, ptr %64, align 8, !tbaa !24
  %66 = call i32 (ptr, ptr, ...) @fprintf(ptr noundef %65, ptr noundef @.str.118) #11
  %67 = load ptr, ptr %5, align 8, !tbaa !3
  %68 = getelementptr inbounds nuw %struct.Abc_Frame_t_, ptr %67, i32 0, i32 21
  %69 = load ptr, ptr %68, align 8, !tbaa !24
  %70 = call i32 (ptr, ptr, ...) @fprintf(ptr noundef %69, ptr noundef @.str.119) #11
  store i32 1, ptr %4, align 4
  store i32 1, ptr %11, align 4
  br label %71

71:                                               ; preds = %54, %42, %36
  call void @llvm.lifetime.end.p0(i64 4, ptr %10) #11
  call void @llvm.lifetime.end.p0(i64 8, ptr %9) #11
  call void @llvm.lifetime.end.p0(i64 8, ptr %8) #11
  %72 = load i32, ptr %4, align 4
  ret i32 %72
}