; Function Attrs: nounwind uwtable
define internal range(i32 0, 2) i32 @IoCommandReadStatus(ptr noundef %0, i32 noundef %1, ptr noundef %2) #0 {
  tail call void (...) @Extra_UtilGetoptReset() #18
  %4 = tail call i32 @Extra_UtilGetopt(i32 noundef %1, ptr noundef %2, ptr noundef nonnull @.str.165) #18
  %.not = icmp eq i32 %4, -1
  br i1 %.not, label %5, label %24

5:                                                ; preds = %3
  %6 = load i32, ptr @globalUtilOptind, align 4, !tbaa !3
  %7 = add nsw i32 %6, 1
  %.not18 = icmp eq i32 %1, %7
  br i1 %.not18, label %8, label %24

8:                                                ; preds = %5
  %9 = sext i32 %6 to i64
  %10 = getelementptr inbounds ptr, ptr %2, i64 %9
  %11 = load ptr, ptr %10, align 8, !tbaa !9
  %12 = tail call noalias ptr @fopen(ptr noundef %11, ptr noundef nonnull @.str.51)
  %13 = icmp eq ptr %12, null
  br i1 %13, label %14, label %18

14:                                               ; preds = %8
  %15 = getelementptr inbounds nuw i8, ptr %0, i64 136
  %16 = load ptr, ptr %15, align 8, !tbaa !34
  %17 = tail call i32 (ptr, ptr, ...) @fprintf(ptr noundef %16, ptr noundef nonnull @.str.141, ptr noundef %11) #18
  br label %34

18:                                               ; preds = %8
  %19 = tail call i32 @fclose(ptr noundef nonnull %12)
  tail call void @Abc_FrameClearVerifStatus(ptr noundef %0) #18
  %20 = getelementptr inbounds nuw i8, ptr %0, i64 352
  %21 = getelementptr inbounds nuw i8, ptr %0, i64 404
  %22 = tail call i32 @Abc_NtkReadLogFile(ptr noundef %11, ptr noundef nonnull %20, ptr noundef nonnull %21) #18
  %23 = getelementptr inbounds nuw i8, ptr %0, i64 400
  store i32 %22, ptr %23, align 8, !tbaa !51
  br label %34

24:                                               ; preds = %5, %3
  %25 = getelementptr inbounds nuw i8, ptr %0, i64 136
  %26 = load ptr, ptr %25, align 8, !tbaa !34
  %27 = tail call i64 @fwrite(ptr nonnull @.str.215, i64 32, i64 1, ptr %26)
  %28 = load ptr, ptr %25, align 8, !tbaa !34
  %29 = tail call i64 @fwrite(ptr nonnull @.str.216, i64 38, i64 1, ptr %28)
  %30 = load ptr, ptr %25, align 8, !tbaa !34
  %31 = tail call i64 @fwrite(ptr nonnull @.str.118, i64 37, i64 1, ptr %30)
  %32 = load ptr, ptr %25, align 8, !tbaa !34
  %33 = tail call i64 @fwrite(ptr nonnull @.str.119, i64 37, i64 1, ptr %32)
  br label %34

34:                                               ; preds = %24, %18, %14
  %.0 = phi i32 [ 1, %24 ], [ 1, %14 ], [ 0, %18 ]
  ret i32 %.0
}